; Function Attrs: mustprogress uwtable
define void @_ZN6casadi8Function11deserializeERKNSt7__cxx1112basic_stringIcSt11char_traitsIcESaIcEEE(ptr dead_on_unwind noalias writable sret(%"class.casadi::Function") align 8 %0, ptr noundef nonnull readonly align 8 captures(none) dereferenceable(32) %1) local_unnamed_addr #4 align 2 personality ptr @__gxx_personality_v0 {
  %3 = alloca %"class.std::__cxx11::basic_stringstream", align 8
  call void @llvm.lifetime.start.p0(i64 392, ptr nonnull %3) #30
  call void @_ZNSt7__cxx1118basic_stringstreamIcSt11char_traitsIcESaIcEEC1Ev(ptr noundef nonnull align 8 dereferenceable(128) %3)
  %4 = getelementptr inbounds nuw i8, ptr %3, i64 16
  %5 = load ptr, ptr %1, align 8, !tbaa !11
  %6 = getelementptr inbounds nuw i8, ptr %1, i64 8
  %7 = load i64, ptr %6, align 8, !tbaa !14
  %8 = invoke noundef nonnull align 8 dereferenceable(8) ptr @_ZSt16__ostream_insertIcSt11char_traitsIcEERSt13basic_ostreamIT_T0_ES6_PKS3_l(ptr noundef nonnull align 8 dereferenceable(8) %4, ptr noundef %5, i64 noundef %7)
          to label %_ZStlsIcSt11char_traitsIcESaIcEERSt13basic_ostreamIT_T0_ES7_RKNSt7__cxx1112basic_stringIS4_S5_T1_EE.exit unwind label %34

_ZStlsIcSt11char_traitsIcESaIcEERSt13basic_ostreamIT_T0_ES7_RKNSt7__cxx1112basic_stringIS4_S5_T1_EE.exit: ; preds = %2
  invoke void @_ZN6casadi8Function11deserializeERSi(ptr dead_on_unwind writable sret(%"class.casadi::Function") align 8 %0, ptr noundef nonnull align 8 dereferenceable(16) %3)
          to label %9 unwind label %34

9:                                                ; preds = %_ZStlsIcSt11char_traitsIcESaIcEERSt13basic_ostreamIT_T0_ES7_RKNSt7__cxx1112basic_stringIS4_S5_T1_EE.exit
  %10 = load ptr, ptr @_ZTTNSt7__cxx1118basic_stringstreamIcSt11char_traitsIcESaIcEEE, align 8
  store ptr %10, ptr %3, align 8, !tbaa !25
  %11 = load ptr, ptr getelementptr inbounds nuw (i8, ptr @_ZTTNSt7__cxx1118basic_stringstreamIcSt11char_traitsIcESaIcEEE, i64 64), align 8
  %12 = getelementptr i8, ptr %10, i64 -24
  %13 = load i64, ptr %12, align 8
  %14 = getelementptr inbounds i8, ptr %3, i64 %13
  store ptr %11, ptr %14, align 8, !tbaa !25
  %15 = load ptr, ptr getelementptr inbounds nuw (i8, ptr @_ZTTNSt7__cxx1118basic_stringstreamIcSt11char_traitsIcESaIcEEE, i64 72), align 8
  store ptr %15, ptr %4, align 8, !tbaa !25
  %16 = getelementptr inbounds nuw i8, ptr %3, i64 24
  store ptr getelementptr inbounds nuw inrange(-16, 112) (i8, ptr @_ZTVNSt7__cxx1115basic_stringbufIcSt11char_traitsIcESaIcEEE, i64 16), ptr %16, align 8, !tbaa !25
  %17 = getelementptr inbounds nuw i8, ptr %3, i64 96
  %18 = load ptr, ptr %17, align 8, !tbaa !11
  %19 = getelementptr inbounds nuw i8, ptr %3, i64 112
  %20 = icmp eq ptr %18, %19
  br i1 %20, label %_ZNKSt7__cxx1112basic_stringIcSt11char_traitsIcESaIcEE11_M_is_localEv.exit.thread.i.i.i.i.i, label %_ZNKSt7__cxx1112basic_stringIcSt11char_traitsIcESaIcEE11_M_is_localEv.exit.i.i.i.i.i

_ZNKSt7__cxx1112basic_stringIcSt11char_traitsIcESaIcEE11_M_is_localEv.exit.thread.i.i.i.i.i: ; preds = %9
  %21 = getelementptr inbounds nuw i8, ptr %3, i64 104
  %22 = load i64, ptr %21, align 8, !tbaa !14
  %23 = icmp ult i64 %22, 16
  call void @llvm.assume(i1 %23)
  br label %_ZNSt7__cxx1118basic_stringstreamIcSt11char_traitsIcESaIcEED1Ev.exit

_ZNKSt7__cxx1112basic_stringIcSt11char_traitsIcESaIcEE11_M_is_localEv.exit.i.i.i.i.i: ; preds = %9
  %24 = load i64, ptr %19, align 8, !tbaa !13
  %25 = add i64 %24, 1
  call void @_ZdlPvm(ptr noundef %18, i64 noundef %25) #31
  br label %_ZNSt7__cxx1118basic_stringstreamIcSt11char_traitsIcESaIcEED1Ev.exit

_ZNSt7__cxx1118basic_stringstreamIcSt11char_traitsIcESaIcEED1Ev.exit: ; preds = %_ZNKSt7__cxx1112basic_stringIcSt11char_traitsIcESaIcEE11_M_is_localEv.exit.thread.i.i.i.i.i, %_ZNKSt7__cxx1112basic_stringIcSt11char_traitsIcESaIcEE11_M_is_localEv.exit.i.i.i.i.i
  store ptr getelementptr inbounds nuw inrange(-16, 112) (i8, ptr @_ZTVSt15basic_streambufIcSt11char_traitsIcEE, i64 16), ptr %16, align 8, !tbaa !25
  %26 = getelementptr inbounds nuw i8, ptr %3, i64 80
  call void @_ZNSt6localeD1Ev(ptr noundef nonnull align 8 dereferenceable(8) %26) #30
  %27 = load ptr, ptr getelementptr inbounds nuw (i8, ptr @_ZTTNSt7__cxx1118basic_stringstreamIcSt11char_traitsIcESaIcEEE, i64 16), align 8
  store ptr %27, ptr %3, align 8, !tbaa !25
  %28 = load ptr, ptr getelementptr inbounds nuw (i8, ptr @_ZTTNSt7__cxx1118basic_stringstreamIcSt11char_traitsIcESaIcEEE, i64 24), align 8
  %29 = getelementptr i8, ptr %27, i64 -24
  %30 = load i64, ptr %29, align 8
  %31 = getelementptr inbounds i8, ptr %3, i64 %30
  store ptr %28, ptr %31, align 8, !tbaa !25
  %32 = getelementptr inbounds nuw i8, ptr %3, i64 8
  store i64 0, ptr %32, align 8, !tbaa !442
  %33 = getelementptr inbounds nuw i8, ptr %3, i64 128
  call void @_ZNSt8ios_baseD2Ev(ptr noundef nonnull align 8 dereferenceable(264) %33) #30
  call void @llvm.lifetime.end.p0(i64 392, ptr nonnull %3) #30
  ret void

34:                                               ; preds = %2, %_ZStlsIcSt11char_traitsIcESaIcEERSt13basic_ostreamIT_T0_ES7_RKNSt7__cxx1112basic_stringIS4_S5_T1_EE.exit
  %35 = landingpad { ptr, i32 }
          cleanup
  call void @_ZNSt7__cxx1118basic_stringstreamIcSt11char_traitsIcESaIcEED1Ev(ptr noundef nonnull align 8 dereferenceable(128) %3) #30
  call void @llvm.lifetime.end.p0(i64 392, ptr nonnull %3) #30
  resume { ptr, i32 } %35
}